TN:
SF:/home/ellie/MemoryAllocator/include/Allocator.hpp
FN:15,21,_ZN9AllocatorC2Em
FN:33,64,_ZN9AllocatorD2Ev
FNDA:26,_ZN9AllocatorC2Em
FNDA:26,_ZN9AllocatorD2Ev
FNF:2
FNH:2
DA:15,26
DA:16,26
DA:17,26
DA:18,26
DA:19,26
DA:20,26
DA:21,26
DA:33,26
DA:34,26
DA:36,26
DA:37,26
DA:38,9
DA:40,17
DA:41,5
DA:44,12
DA:45,12
DA:48,0
DA:51,26
DA:52,10000065
DA:53,10000065
DA:54,10000039
DA:55,10000039
DA:58,26
DA:59,26
DA:64,26
LF:25
LH:24
end_of_record
TN:
SF:/home/ellie/MemoryAllocator/include/Chunk.hpp
FN:17,25,_ZN5ChunkC2Eiib
FN:26,28,_ZN5ChunkD2Ev
FNDA:10000081,_ZN5ChunkC2Eiib
FNDA:10000081,_ZN5ChunkD2Ev
FNF:2
FNH:2
DA:17,10000081
DA:18,10000081
DA:19,10000081
DA:20,10000081
DA:21,10000081
DA:22,10000081
DA:23,10000081
DA:24,10000081
DA:25,10000081
DA:26,10000081
DA:28,10000081
LF:11
LH:11
end_of_record
TN:
SF:/home/ellie/MemoryAllocator/src/Allocator.cpp
FN:10,12,_ZN9Allocator11getFreeHeadEv
FN:13,15,_ZN9Allocator10getOccHeadEv
FN:16,18,_ZN9Allocator13getMemAddressEm
FN:167,273,_ZN9Allocator4freeEPv
FN:19,62,_ZN9Allocator11printChunksEv
FN:275,333,_ZN9Allocator10defragmentEv
FN:335,339,_ZN9Allocator6callocEmm
FN:341,430,_ZN9Allocator7reallocEPvm
FN:64,165,_ZN9Allocator6mallocEm
FNDA:52,_ZN9Allocator11getFreeHeadEv
FNDA:67,_ZN9Allocator10getOccHeadEv
FNDA:2,_ZN9Allocator13getMemAddressEm
FNDA:18,_ZN9Allocator4freeEPv
FNDA:0,_ZN9Allocator11printChunksEv
FNDA:2,_ZN9Allocator10defragmentEv
FNDA:5,_ZN9Allocator6callocEmm
FNDA:6,_ZN9Allocator7reallocEPvm
FNDA:10000058,_ZN9Allocator6mallocEm
FNF:9
FNH:8
DA:10,52
DA:11,52
DA:13,67
DA:14,67
DA:16,2
DA:17,2
DA:19,0
DA:20,0
DA:21,0
DA:22,0
DA:23,0
DA:25,0
DA:26,0
DA:27,0
DA:30,0
DA:31,0
DA:32,0
DA:34,0
DA:35,0
DA:38,0
DA:39,0
DA:42,0
DA:45,0
DA:48,0
DA:49,0
DA:50,0
DA:51,0
DA:52,0
DA:53,0
DA:54,0
DA:55,0
DA:56,0
DA:57,0
DA:61,0
DA:62,0
DA:64,10000058
DA:83,10000058
DA:84,1
DA:88,10000057
DA:89,2
DA:90,2
DA:93,10000055
DA:94,10000056
DA:95,10000056
DA:96,10000055
DA:98,1
DA:100,10000055
DA:104,0
DA:105,0
DA:106,0
DA:109,0
DA:113,10000055
DA:114,10000055
DA:115,10000055
DA:116,10000055
DA:117,10000055
DA:119,10000055
DA:120,23
DA:121,23
DA:122,23
DA:123,23
DA:126,10000032
DA:127,1
DA:130,10000032
DA:131,10000032
DA:132,10000032
DA:133,10000032
DA:134,10000032
DA:135,10000032
DA:136,10000032
DA:139,10000055
DA:140,6
DA:141,6
DA:142,0
DA:144,6
DA:145,0
DA:147,6
DA:148,6
DA:149,6
DA:150,0
DA:154,0
DA:155,0
DA:158,6
DA:161,10000055
DA:163,10000055
DA:167,18
DA:179,18
DA:183,33
DA:184,33
DA:185,18
DA:187,15
DA:189,18
DA:190,0
DA:193,18
DA:195,18
DA:196,6
DA:197,0
DA:200,6
DA:204,18
DA:205,12
DA:207,18
DA:208,12
DA:210,18
DA:212,18
DA:214,8
DA:215,7
DA:216,7
DA:217,7
DA:218,7
DA:219,0
DA:221,7
DA:222,2
DA:225,7
DA:226,2
DA:228,7
DA:229,7
DA:230,7
DA:231,7
DA:233,7
DA:237,8
DA:238,1
DA:239,1
DA:240,1
DA:241,1
DA:243,1
DA:245,1
DA:247,8
DA:250,10
DA:251,1
DA:252,1
DA:254,9
DA:255,8
DA:256,8
DA:257,8
DA:258,8
DA:259,8
DA:262,1
DA:263,1
DA:264,0
DA:267,1
DA:268,1
DA:269,1
DA:270,1
DA:272,1
DA:275,2
DA:276,2
DA:277,0
DA:282,2
DA:283,2
DA:284,2
DA:286,2
DA:288,2
DA:289,4
DA:291,2
DA:293,2
DA:295,4
DA:296,2
DA:299,4
DA:302,2
DA:303,2
DA:304,2
DA:306,2
DA:307,2
DA:308,2
DA:311,2
DA:312,2
DA:313,2
DA:314,2
DA:315,2
DA:317,2
DA:318,2
DA:323,2
DA:324,2
DA:325,2
DA:326,2
DA:327,2
DA:329,2
DA:330,0
DA:333,2
DA:335,5
DA:336,5
DA:337,5
DA:338,5
DA:341,6
DA:342,6
DA:343,6
DA:344,1
DA:346,5
DA:347,1
DA:349,6
DA:350,2
DA:351,2
DA:352,0
DA:355,4
DA:356,0
DA:359,4
DA:360,0
DA:361,0
DA:364,4
DA:366,4
DA:368,1
DA:369,1
DA:370,1
DA:371,1
DA:372,1
DA:373,1
DA:376,0
DA:377,0
DA:378,0
DA:380,0
DA:381,0
DA:382,0
DA:383,0
DA:385,0
DA:386,0
DA:388,0
DA:390,0
DA:391,0
DA:392,0
DA:394,0
DA:395,0
DA:396,0
DA:397,0
DA:398,0
DA:399,0
DA:401,0
DA:403,0
DA:404,0
DA:407,0
DA:408,0
DA:409,0
DA:410,0
DA:412,0
DA:414,0
DA:418,3
DA:419,3
DA:420,3
DA:421,3
DA:422,3
DA:423,3
DA:424,0
DA:426,3
DA:427,3
DA:428,3
LF:244
LH:167
end_of_record
TN:
SF:/home/ellie/MemoryAllocator/tests/allocatortest.cpp
FN:100,100,_ZN38AllocatorFree_SingleBlockFreeTest_Test8TestBodyEv
FN:100,100,_ZN38AllocatorFree_SingleBlockFreeTest_TestC2Ev
FN:100,100,_ZN38AllocatorFree_SingleBlockFreeTest_TestD0Ev
FN:100,100,_ZN38AllocatorFree_SingleBlockFreeTest_TestD2Ev
FN:109,109,_ZN40AllocatorFree_CallocFreeSingleIndex_Test8TestBodyEv
FN:109,109,_ZN40AllocatorFree_CallocFreeSingleIndex_TestC2Ev
FN:109,109,_ZN40AllocatorFree_CallocFreeSingleIndex_TestD0Ev
FN:109,109,_ZN40AllocatorFree_CallocFreeSingleIndex_TestD2Ev
FN:123,123,_ZN42AllocatorFree_CallocFreeMultipleIndex_Test8TestBodyEv
FN:123,123,_ZN42AllocatorFree_CallocFreeMultipleIndex_TestC2Ev
FN:123,123,_ZN42AllocatorFree_CallocFreeMultipleIndex_TestD0Ev
FN:123,123,_ZN42AllocatorFree_CallocFreeMultipleIndex_TestD2Ev
FN:137,137,_ZN33AllocatorFree_FragmentedFree_Test8TestBodyEv
FN:137,137,_ZN33AllocatorFree_FragmentedFree_TestC2Ev
FN:137,137,_ZN33AllocatorFree_FragmentedFree_TestD0Ev
FN:137,137,_ZN33AllocatorFree_FragmentedFree_TestD2Ev
FN:14,56,_Z15TestConnectionsR9Allocator
FN:147,147,_ZN43AllocatorFree_InformationOverwriteFree_Test8TestBodyEv
FN:147,147,_ZN43AllocatorFree_InformationOverwriteFree_TestC2Ev
FN:147,147,_ZN43AllocatorFree_InformationOverwriteFree_TestD0Ev
FN:147,147,_ZN43AllocatorFree_InformationOverwriteFree_TestD2Ev
FN:158,158,_ZN33AllocatorFree_FreeChunkAhead_Test8TestBodyEv
FN:158,158,_ZN33AllocatorFree_FreeChunkAhead_TestC2Ev
FN:158,158,_ZN33AllocatorFree_FreeChunkAhead_TestD0Ev
FN:158,158,_ZN33AllocatorFree_FreeChunkAhead_TestD2Ev
FN:172,172,_ZN34AllocatorFree_FreeChunkBehind_Test8TestBodyEv
FN:172,172,_ZN34AllocatorFree_FreeChunkBehind_TestC2Ev
FN:172,172,_ZN34AllocatorFree_FreeChunkBehind_TestD0Ev
FN:172,172,_ZN34AllocatorFree_FreeChunkBehind_TestD2Ev
FN:186,186,_ZN29AllocatorFree_NoFreeHead_Test8TestBodyEv
FN:186,186,_ZN29AllocatorFree_NoFreeHead_TestC2Ev
FN:186,186,_ZN29AllocatorFree_NoFreeHead_TestD0Ev
FN:186,186,_ZN29AllocatorFree_NoFreeHead_TestD2Ev
FN:196,209,_ZN44AllocatorFree_AfterFreeHead_No_Adj_Free_Test8TestBodyEv
FN:196,209,_ZN44AllocatorFree_AfterFreeHead_No_Adj_Free_TestC2Ev
FN:196,209,_ZN44AllocatorFree_AfterFreeHead_No_Adj_Free_TestD0Ev
FN:196,209,_ZN44AllocatorFree_AfterFreeHead_No_Adj_Free_TestD2Ev
FN:211,211,_ZN31AllocatorDefragment_Malloc_Test8TestBodyEv
FN:211,211,_ZN31AllocatorDefragment_Malloc_TestC2Ev
FN:211,211,_ZN31AllocatorDefragment_Malloc_TestD0Ev
FN:211,211,_ZN31AllocatorDefragment_Malloc_TestD2Ev
FN:230,245,_ZN31AllocatorDefragment_Calloc_Test8TestBodyEv
FN:230,245,_ZN31AllocatorDefragment_Calloc_TestC2Ev
FN:230,245,_ZN31AllocatorDefragment_Calloc_TestD0Ev
FN:230,245,_ZN31AllocatorDefragment_Calloc_TestD2Ev
FN:247,260,_ZN32AllocatorCalloc_AllAssigned_Test8TestBodyEv
FN:247,260,_ZN32AllocatorCalloc_AllAssigned_TestC2Ev
FN:247,260,_ZN32AllocatorCalloc_AllAssigned_TestD0Ev
FN:247,260,_ZN32AllocatorCalloc_AllAssigned_TestD2Ev
FN:266,266,_ZN35PerformAlloc_largeAllocation1b_Test8TestBodyEv
FN:266,266,_ZN35PerformAlloc_largeAllocation1b_TestC2Ev
FN:266,266,_ZN35PerformAlloc_largeAllocation1b_TestD0Ev
FN:266,266,_ZN35PerformAlloc_largeAllocation1b_TestD2Ev
FN:271,277,_ZN30PerformAlloc_manyAlloc10M_Test8TestBodyEv
FN:271,277,_ZN30PerformAlloc_manyAlloc10M_TestC2Ev
FN:271,277,_ZN30PerformAlloc_manyAlloc10M_TestD0Ev
FN:271,277,_ZN30PerformAlloc_manyAlloc10M_TestD2Ev
FN:279,279,_ZN31AllocatorRealloc_NullInput_Test8TestBodyEv
FN:279,279,_ZN31AllocatorRealloc_NullInput_TestC2Ev
FN:279,279,_ZN31AllocatorRealloc_NullInput_TestD0Ev
FN:279,279,_ZN31AllocatorRealloc_NullInput_TestD2Ev
FN:287,287,_ZN35AllocatorRealloc_reallocToZero_Test8TestBodyEv
FN:287,287,_ZN35AllocatorRealloc_reallocToZero_TestC2Ev
FN:287,287,_ZN35AllocatorRealloc_reallocToZero_TestD0Ev
FN:287,287,_ZN35AllocatorRealloc_reallocToZero_TestD2Ev
FN:295,303,_ZN42AllocatorRealloc_GreaterThanAvailable_Test8TestBodyEv
FN:295,303,_ZN42AllocatorRealloc_GreaterThanAvailable_TestC2Ev
FN:295,303,_ZN42AllocatorRealloc_GreaterThanAvailable_TestD0Ev
FN:295,303,_ZN42AllocatorRealloc_GreaterThanAvailable_TestD2Ev
FN:305,305,_ZN34AllocatorRealloc_ReUseSamePos_Test8TestBodyEv
FN:305,305,_ZN34AllocatorRealloc_ReUseSamePos_TestC2Ev
FN:305,305,_ZN34AllocatorRealloc_ReUseSamePos_TestD0Ev
FN:305,305,_ZN34AllocatorRealloc_ReUseSamePos_TestD2Ev
FN:318,318,_ZN42AllocatorRealloc_InformationPreserved_Test8TestBodyEv
FN:318,318,_ZN42AllocatorRealloc_InformationPreserved_TestC2Ev
FN:318,318,_ZN42AllocatorRealloc_InformationPreserved_TestD0Ev
FN:318,318,_ZN42AllocatorRealloc_InformationPreserved_TestD2Ev
FN:327,338,_ZN35AllocatorRealloc_CallocRealloc_Test8TestBodyEv
FN:327,338,_ZN35AllocatorRealloc_CallocRealloc_TestC2Ev
FN:327,338,_ZN35AllocatorRealloc_CallocRealloc_TestD0Ev
FN:327,338,_ZN35AllocatorRealloc_CallocRealloc_TestD2Ev
FN:340,344,main
FN:58,58,_ZN47AllocatorMalloc_MallocValidSize_AlmostFull_Test8TestBodyEv
FN:58,58,_ZN47AllocatorMalloc_MallocValidSize_AlmostFull_TestC2Ev
FN:58,58,_ZN47AllocatorMalloc_MallocValidSize_AlmostFull_TestD0Ev
FN:58,58,_ZN47AllocatorMalloc_MallocValidSize_AlmostFull_TestD2Ev
FN:65,65,_ZN46AllocatorMalloc_MallocValidSize_LastChunk_Test8TestBodyEv
FN:65,65,_ZN46AllocatorMalloc_MallocValidSize_LastChunk_TestC2Ev
FN:65,65,_ZN46AllocatorMalloc_MallocValidSize_LastChunk_TestD0Ev
FN:65,65,_ZN46AllocatorMalloc_MallocValidSize_LastChunk_TestD2Ev
FN:73,73,_ZN36AllocatorMalloc_MallocZeroBytes_Test8TestBodyEv
FN:73,73,_ZN36AllocatorMalloc_MallocZeroBytes_TestC2Ev
FN:73,73,_ZN36AllocatorMalloc_MallocZeroBytes_TestD0Ev
FN:73,73,_ZN36AllocatorMalloc_MallocZeroBytes_TestD2Ev
FN:80,80,_ZN34AllocatorMalloc_MallocTooMuch_Test8TestBodyEv
FN:80,80,_ZN34AllocatorMalloc_MallocTooMuch_TestC2Ev
FN:80,80,_ZN34AllocatorMalloc_MallocTooMuch_TestD0Ev
FN:80,80,_ZN34AllocatorMalloc_MallocTooMuch_TestD2Ev
FN:86,86,_ZN35AllocatorMalloc_MallocNegative_Test8TestBodyEv
FN:86,86,_ZN35AllocatorMalloc_MallocNegative_TestC2Ev
FN:86,86,_ZN35AllocatorMalloc_MallocNegative_TestD0Ev
FN:86,86,_ZN35AllocatorMalloc_MallocNegative_TestD2Ev
FN:92,92,_ZN46AllocatorMalloc_MallocFullPoolSize1Blocks_Test8TestBodyEv
FN:92,92,_ZN46AllocatorMalloc_MallocFullPoolSize1Blocks_TestC2Ev
FN:92,92,_ZN46AllocatorMalloc_MallocFullPoolSize1Blocks_TestD0Ev
FN:92,92,_ZN46AllocatorMalloc_MallocFullPoolSize1Blocks_TestD2Ev
FNDA:1,_ZN38AllocatorFree_SingleBlockFreeTest_Test8TestBodyEv
FNDA:1,_ZN38AllocatorFree_SingleBlockFreeTest_TestC2Ev
FNDA:1,_ZN38AllocatorFree_SingleBlockFreeTest_TestD0Ev
FNDA:1,_ZN38AllocatorFree_SingleBlockFreeTest_TestD2Ev
FNDA:1,_ZN40AllocatorFree_CallocFreeSingleIndex_Test8TestBodyEv
FNDA:1,_ZN40AllocatorFree_CallocFreeSingleIndex_TestC2Ev
FNDA:1,_ZN40AllocatorFree_CallocFreeSingleIndex_TestD0Ev
FNDA:1,_ZN40AllocatorFree_CallocFreeSingleIndex_TestD2Ev
FNDA:1,_ZN42AllocatorFree_CallocFreeMultipleIndex_Test8TestBodyEv
FNDA:1,_ZN42AllocatorFree_CallocFreeMultipleIndex_TestC2Ev
FNDA:1,_ZN42AllocatorFree_CallocFreeMultipleIndex_TestD0Ev
FNDA:1,_ZN42AllocatorFree_CallocFreeMultipleIndex_TestD2Ev
FNDA:1,_ZN33AllocatorFree_FragmentedFree_Test8TestBodyEv
FNDA:1,_ZN33AllocatorFree_FragmentedFree_TestC2Ev
FNDA:1,_ZN33AllocatorFree_FragmentedFree_TestD0Ev
FNDA:1,_ZN33AllocatorFree_FragmentedFree_TestD2Ev
FNDA:24,_Z15TestConnectionsR9Allocator
FNDA:1,_ZN43AllocatorFree_InformationOverwriteFree_Test8TestBodyEv
FNDA:1,_ZN43AllocatorFree_InformationOverwriteFree_TestC2Ev
FNDA:1,_ZN43AllocatorFree_InformationOverwriteFree_TestD0Ev
FNDA:1,_ZN43AllocatorFree_InformationOverwriteFree_TestD2Ev
FNDA:1,_ZN33AllocatorFree_FreeChunkAhead_Test8TestBodyEv
FNDA:1,_ZN33AllocatorFree_FreeChunkAhead_TestC2Ev
FNDA:1,_ZN33AllocatorFree_FreeChunkAhead_TestD0Ev
FNDA:1,_ZN33AllocatorFree_FreeChunkAhead_TestD2Ev
FNDA:1,_ZN34AllocatorFree_FreeChunkBehind_Test8TestBodyEv
FNDA:1,_ZN34AllocatorFree_FreeChunkBehind_TestC2Ev
FNDA:1,_ZN34AllocatorFree_FreeChunkBehind_TestD0Ev
FNDA:1,_ZN34AllocatorFree_FreeChunkBehind_TestD2Ev
FNDA:1,_ZN29AllocatorFree_NoFreeHead_Test8TestBodyEv
FNDA:1,_ZN29AllocatorFree_NoFreeHead_TestC2Ev
FNDA:1,_ZN29AllocatorFree_NoFreeHead_TestD0Ev
FNDA:1,_ZN29AllocatorFree_NoFreeHead_TestD2Ev
FNDA:1,_ZN44AllocatorFree_AfterFreeHead_No_Adj_Free_Test8TestBodyEv
FNDA:1,_ZN44AllocatorFree_AfterFreeHead_No_Adj_Free_TestC2Ev
FNDA:1,_ZN44AllocatorFree_AfterFreeHead_No_Adj_Free_TestD0Ev
FNDA:1,_ZN44AllocatorFree_AfterFreeHead_No_Adj_Free_TestD2Ev
FNDA:1,_ZN31AllocatorDefragment_Malloc_Test8TestBodyEv
FNDA:1,_ZN31AllocatorDefragment_Malloc_TestC2Ev
FNDA:1,_ZN31AllocatorDefragment_Malloc_TestD0Ev
FNDA:1,_ZN31AllocatorDefragment_Malloc_TestD2Ev
FNDA:1,_ZN31AllocatorDefragment_Calloc_Test8TestBodyEv
FNDA:1,_ZN31AllocatorDefragment_Calloc_TestC2Ev
FNDA:1,_ZN31AllocatorDefragment_Calloc_TestD0Ev
FNDA:1,_ZN31AllocatorDefragment_Calloc_TestD2Ev
FNDA:1,_ZN32AllocatorCalloc_AllAssigned_Test8TestBodyEv
FNDA:1,_ZN32AllocatorCalloc_AllAssigned_TestC2Ev
FNDA:1,_ZN32AllocatorCalloc_AllAssigned_TestD0Ev
FNDA:1,_ZN32AllocatorCalloc_AllAssigned_TestD2Ev
FNDA:1,_ZN35PerformAlloc_largeAllocation1b_Test8TestBodyEv
FNDA:1,_ZN35PerformAlloc_largeAllocation1b_TestC2Ev
FNDA:1,_ZN35PerformAlloc_largeAllocation1b_TestD0Ev
FNDA:1,_ZN35PerformAlloc_largeAllocation1b_TestD2Ev
FNDA:1,_ZN30PerformAlloc_manyAlloc10M_Test8TestBodyEv
FNDA:1,_ZN30PerformAlloc_manyAlloc10M_TestC2Ev
FNDA:1,_ZN30PerformAlloc_manyAlloc10M_TestD0Ev
FNDA:1,_ZN30PerformAlloc_manyAlloc10M_TestD2Ev
FNDA:1,_ZN31AllocatorRealloc_NullInput_Test8TestBodyEv
FNDA:1,_ZN31AllocatorRealloc_NullInput_TestC2Ev
FNDA:1,_ZN31AllocatorRealloc_NullInput_TestD0Ev
FNDA:1,_ZN31AllocatorRealloc_NullInput_TestD2Ev
FNDA:1,_ZN35AllocatorRealloc_reallocToZero_Test8TestBodyEv
FNDA:1,_ZN35AllocatorRealloc_reallocToZero_TestC2Ev
FNDA:1,_ZN35AllocatorRealloc_reallocToZero_TestD0Ev
FNDA:1,_ZN35AllocatorRealloc_reallocToZero_TestD2Ev
FNDA:1,_ZN42AllocatorRealloc_GreaterThanAvailable_Test8TestBodyEv
FNDA:1,_ZN42AllocatorRealloc_GreaterThanAvailable_TestC2Ev
FNDA:1,_ZN42AllocatorRealloc_GreaterThanAvailable_TestD0Ev
FNDA:1,_ZN42AllocatorRealloc_GreaterThanAvailable_TestD2Ev
FNDA:1,_ZN34AllocatorRealloc_ReUseSamePos_Test8TestBodyEv
FNDA:1,_ZN34AllocatorRealloc_ReUseSamePos_TestC2Ev
FNDA:1,_ZN34AllocatorRealloc_ReUseSamePos_TestD0Ev
FNDA:1,_ZN34AllocatorRealloc_ReUseSamePos_TestD2Ev
FNDA:1,_ZN42AllocatorRealloc_InformationPreserved_Test8TestBodyEv
FNDA:1,_ZN42AllocatorRealloc_InformationPreserved_TestC2Ev
FNDA:1,_ZN42AllocatorRealloc_InformationPreserved_TestD0Ev
FNDA:1,_ZN42AllocatorRealloc_InformationPreserved_TestD2Ev
FNDA:1,_ZN35AllocatorRealloc_CallocRealloc_Test8TestBodyEv
FNDA:1,_ZN35AllocatorRealloc_CallocRealloc_TestC2Ev
FNDA:1,_ZN35AllocatorRealloc_CallocRealloc_TestD0Ev
FNDA:1,_ZN35AllocatorRealloc_CallocRealloc_TestD2Ev
FNDA:3,main
FNDA:1,_ZN47AllocatorMalloc_MallocValidSize_AlmostFull_Test8TestBodyEv
FNDA:1,_ZN47AllocatorMalloc_MallocValidSize_AlmostFull_TestC2Ev
FNDA:1,_ZN47AllocatorMalloc_MallocValidSize_AlmostFull_TestD0Ev
FNDA:1,_ZN47AllocatorMalloc_MallocValidSize_AlmostFull_TestD2Ev
FNDA:1,_ZN46AllocatorMalloc_MallocValidSize_LastChunk_Test8TestBodyEv
FNDA:1,_ZN46AllocatorMalloc_MallocValidSize_LastChunk_TestC2Ev
FNDA:1,_ZN46AllocatorMalloc_MallocValidSize_LastChunk_TestD0Ev
FNDA:1,_ZN46AllocatorMalloc_MallocValidSize_LastChunk_TestD2Ev
FNDA:1,_ZN36AllocatorMalloc_MallocZeroBytes_Test8TestBodyEv
FNDA:1,_ZN36AllocatorMalloc_MallocZeroBytes_TestC2Ev
FNDA:1,_ZN36AllocatorMalloc_MallocZeroBytes_TestD0Ev
FNDA:1,_ZN36AllocatorMalloc_MallocZeroBytes_TestD2Ev
FNDA:1,_ZN34AllocatorMalloc_MallocTooMuch_Test8TestBodyEv
FNDA:1,_ZN34AllocatorMalloc_MallocTooMuch_TestC2Ev
FNDA:1,_ZN34AllocatorMalloc_MallocTooMuch_TestD0Ev
FNDA:1,_ZN34AllocatorMalloc_MallocTooMuch_TestD2Ev
FNDA:1,_ZN35AllocatorMalloc_MallocNegative_Test8TestBodyEv
FNDA:1,_ZN35AllocatorMalloc_MallocNegative_TestC2Ev
FNDA:1,_ZN35AllocatorMalloc_MallocNegative_TestD0Ev
FNDA:1,_ZN35AllocatorMalloc_MallocNegative_TestD2Ev
FNDA:1,_ZN46AllocatorMalloc_MallocFullPoolSize1Blocks_Test8TestBodyEv
FNDA:1,_ZN46AllocatorMalloc_MallocFullPoolSize1Blocks_TestC2Ev
FNDA:1,_ZN46AllocatorMalloc_MallocFullPoolSize1Blocks_TestD0Ev
FNDA:1,_ZN46AllocatorMalloc_MallocFullPoolSize1Blocks_TestD2Ev
FNF:106
FNH:106
DA:14,24
DA:16,24
DA:17,24
DA:18,9
DA:20,15
DA:21,3
DA:24,12
DA:25,12
DA:28,0
DA:31,88
DA:32,64
DA:33,28
DA:34,28
DA:35,28
DA:37,64
DA:38,40
DA:39,40
DA:41,64
DA:42,28
DA:43,28
DA:44,28
DA:46,64
DA:47,40
DA:49,40
DA:50,7
DA:52,40
DA:54,64
DA:58,4
DA:59,1
DA:60,1
DA:61,1
DA:62,1
DA:65,4
DA:66,1
DA:67,1
DA:68,1
DA:69,1
DA:70,1
DA:73,4
DA:74,1
DA:75,1
DA:76,1
DA:77,1
DA:80,4
DA:81,1
DA:82,1
DA:83,1
DA:84,1
DA:86,4
DA:87,1
DA:88,1
DA:89,1
DA:90,1
DA:92,4
DA:93,1
DA:94,11
DA:95,10
DA:97,1
DA:98,1
DA:100,4
DA:101,1
DA:102,1
DA:103,1
DA:104,1
DA:105,1
DA:106,1
DA:107,1
DA:109,4
DA:110,1
DA:111,1
DA:112,1
DA:113,1
DA:114,1
DA:116,1
DA:117,1
DA:118,1
DA:119,1
DA:120,1
DA:121,1
DA:123,4
DA:124,1
DA:125,1
DA:126,1
DA:127,1
DA:128,1
DA:130,1
DA:131,1
DA:132,1
DA:133,1
DA:134,1
DA:135,1
DA:137,4
DA:138,1
DA:139,1
DA:140,1
DA:141,1
DA:142,1
DA:143,1
DA:144,1
DA:145,1
DA:146,1
DA:147,4
DA:148,1
DA:149,1
DA:150,1
DA:151,1
DA:152,1
DA:153,1
DA:154,1
DA:155,1
DA:156,1
DA:158,4
DA:159,1
DA:160,1
DA:161,1
DA:162,1
DA:163,1
DA:164,1
DA:165,1
DA:166,1
DA:167,1
DA:168,1
DA:169,1
DA:170,1
DA:172,4
DA:173,1
DA:174,1
DA:175,1
DA:176,1
DA:177,1
DA:178,1
DA:179,1
DA:180,1
DA:181,1
DA:182,1
DA:183,1
DA:184,1
DA:186,4
DA:187,1
DA:188,1
DA:189,1
DA:190,1
DA:191,1
DA:192,1
DA:193,1
DA:194,1
DA:196,4
DA:197,1
DA:198,1
DA:199,1
DA:200,1
DA:201,1
DA:202,1
DA:203,1
DA:204,1
DA:205,1
DA:206,1
DA:207,1
DA:208,1
DA:209,1
DA:211,4
DA:213,1
DA:214,1
DA:215,1
DA:216,1
DA:218,1
DA:219,1
DA:221,1
DA:222,1
DA:223,1
DA:225,1
DA:226,1
DA:227,1
DA:228,1
DA:230,4
DA:231,1
DA:232,1
DA:233,1
DA:234,1
DA:236,1
DA:237,1
DA:239,1
DA:240,1
DA:241,1
DA:242,1
DA:243,1
DA:244,1
DA:245,1
DA:247,4
DA:248,1
DA:249,1
DA:252,11
DA:253,10
DA:256,11
DA:257,10
DA:259,1
DA:260,1
DA:266,4
DA:267,1
DA:268,1
DA:269,1
DA:271,4
DA:272,1
DA:273,10000001
DA:274,10000000
DA:276,1
DA:277,1
DA:279,4
DA:280,1
DA:281,1
DA:282,1
DA:283,1
DA:284,1
DA:285,1
DA:287,4
DA:288,1
DA:289,1
DA:290,1
DA:291,1
DA:292,1
DA:293,1
DA:295,4
DA:296,1
DA:297,1
DA:298,1
DA:299,1
DA:300,1
DA:301,1
DA:302,1
DA:303,1
DA:305,4
DA:306,1
DA:307,1
DA:308,1
DA:309,1
DA:310,1
DA:312,1
DA:313,1
DA:314,1
DA:315,1
DA:316,1
DA:318,4
DA:319,1
DA:320,1
DA:321,1
DA:322,1
DA:323,1
DA:324,1
DA:325,1
DA:327,4
DA:328,1
DA:329,1
DA:330,6
DA:331,5
DA:333,1
DA:334,6
DA:335,5
DA:337,1
DA:338,1
DA:340,3
DA:342,3
DA:343,3
LF:262
LH:261
end_of_record
